target datalayout = "e-m:e-p270:32:32-p271:32:32-p272:64:64-i64:64-i128:128-f80:128-n8:16:32:64-S128"
target triple = "x86_64-pc-linux-gnu"

%struct.expert_field = type { i32, i32 }

@ei_opsi_short_attribute = internal global %struct.expert_field zeroinitializer, align 4

; Function Attrs: null_pointer_is_valid sspstrong uwtable
define internal void @decode_time_attribute(ptr noundef %0, ptr noundef %1, ptr noundef %2, ptr noundef %3, ptr noundef %4, i32 noundef %5, i32 noundef %6) #0 {
  %8 = alloca ptr, align 8
  %9 = alloca ptr, align 8
  %10 = alloca ptr, align 8
  %11 = alloca ptr, align 8
  %12 = alloca ptr, align 8
  %13 = alloca i32, align 4
  %14 = alloca i32, align 4
  store ptr %0, ptr %8, align 8
  store ptr %1, ptr %9, align 8
  store ptr %2, ptr %10, align 8
  store ptr %3, ptr %11, align 8
  store ptr %4, ptr %12, align 8
  store i32 %5, ptr %13, align 4
  store i32 %6, ptr %14, align 4
  %15 = load i32, ptr %14, align 4
  %16 = icmp slt i32 %15, 8
  br i1 %16, label %17, label %21

17:                                               ; preds = %7
  %18 = load ptr, ptr %9, align 8
  %19 = load ptr, ptr %11, align 8
  %20 = call ptr @expert_add_info(ptr noundef %18, ptr noundef %19, ptr noundef @ei_opsi_short_attribute)
  br label %29

21:                                               ; preds = %7
  %22 = load ptr, ptr %10, align 8
  %23 = load ptr, ptr %12, align 8
  %24 = load i32, ptr %23, align 4
  %25 = load ptr, ptr %8, align 8
  %26 = load i32, ptr %13, align 4
  %27 = add i32 %26, 4
  %28 = call ptr @proto_tree_add_item(ptr noundef %22, i32 noundef %24, ptr noundef %25, i32 noundef %27, i32 noundef 4, i32 noundef 18)
  br label %29

29:                                               ; preds = %21, %17
  ret void
}